target datalayout = "e-m:e-p270:32:32-p271:32:32-p272:64:64-i64:64-i128:128-f80:128-n8:16:32:64-S128"
target triple = "x86_64-pc-linux-gnu"

@.str.1 = private unnamed_addr constant [46 x i8] c"%s: unable to append NULL list to assoc list.\00", align 1
@__func__._append_list_to_array = private unnamed_addr constant [22 x i8] c"_append_list_to_array\00", align 1
@.str.2 = private unnamed_addr constant [12 x i8] c"fair_tree.c\00", align 1

; Function Attrs: nounwind uwtable
define internal ptr @_append_list_to_array(ptr noundef %0, ptr noundef %1, ptr noundef %2) #0 {
  %4 = alloca ptr, align 8
  %5 = alloca ptr, align 8
  %6 = alloca ptr, align 8
  %7 = alloca ptr, align 8
  %8 = alloca ptr, align 8
  %9 = alloca ptr, align 8
  %10 = alloca i64, align 8
  %11 = alloca i64, align 8
  %12 = alloca i32, align 4
  store ptr %0, ptr %5, align 8
  store ptr %1, ptr %6, align 8
  store ptr %2, ptr %7, align 8
  call void @llvm.lifetime.start.p0(i64 8, ptr %8) #4
  call void @llvm.lifetime.start.p0(i64 8, ptr %9) #4
  call void @llvm.lifetime.start.p0(i64 8, ptr %10) #4
  call void @llvm.lifetime.start.p0(i64 8, ptr %11) #4
  %13 = load ptr, ptr %7, align 8
  %14 = load i64, ptr %13, align 8
  store i64 %14, ptr %11, align 8
  %15 = load ptr, ptr %5, align 8
  %16 = icmp ne ptr %15, null
  br i1 %16, label %20, label %17

17:                                               ; preds = %3
  %18 = call i32 (ptr, ...) @error(ptr noundef @.str.1, ptr noundef @__func__._append_list_to_array)
  %19 = load ptr, ptr %6, align 8
  store ptr %19, ptr %4, align 8
  store i32 1, ptr %12, align 4
  br label %52

20:                                               ; preds = %3
  %21 = load ptr, ptr %5, align 8
  %22 = call i32 @list_count(ptr noundef %21)
  %23 = sext i32 %22 to i64
  %24 = load ptr, ptr %7, align 8
  %25 = load i64, ptr %24, align 8
  %26 = add i64 %25, %23
  store i64 %26, ptr %24, align 8
  %27 = load ptr, ptr %7, align 8
  %28 = load i64, ptr %27, align 8
  %29 = add i64 %28, 1
  %30 = mul i64 8, %29
  store i64 %30, ptr %10, align 8
  %31 = load i64, ptr %10, align 8
  %32 = call ptr @slurm_xrecalloc(ptr noundef %6, i64 noundef 1, i64 noundef %31, i1 noundef zeroext true, i1 noundef zeroext false, ptr noundef @.str.2, i32 noundef 234, ptr noundef @__func__._append_list_to_array)
  store ptr %32, ptr %6, align 8
  %33 = load ptr, ptr %5, align 8
  %34 = call ptr @list_iterator_create(ptr noundef %33)
  store ptr %34, ptr %8, align 8
  br label %35

35:                                               ; preds = %39, %20
  %36 = load ptr, ptr %8, align 8
  %37 = call ptr @list_next(ptr noundef %36)
  store ptr %37, ptr %9, align 8
  %38 = icmp ne ptr %37, null
  br i1 %38, label %39, label %45

39:                                               ; preds = %35
  %40 = load ptr, ptr %9, align 8
  %41 = load ptr, ptr %6, align 8
  %42 = load i64, ptr %11, align 8
  %43 = add i64 %42, 1
  store i64 %43, ptr %11, align 8
  %44 = getelementptr inbounds nuw ptr, ptr %41, i64 %42
  store ptr %40, ptr %44, align 8
  br label %35, !llvm.loop !8

45:                                               ; preds = %35
  %46 = load ptr, ptr %8, align 8
  call void @list_iterator_destroy(ptr noundef %46)
  %47 = load ptr, ptr %6, align 8
  %48 = load ptr, ptr %7, align 8
  %49 = load i64, ptr %48, align 8
  %50 = getelementptr inbounds nuw ptr, ptr %47, i64 %49
  store ptr null, ptr %50, align 8
  %51 = load ptr, ptr %6, align 8
  store ptr %51, ptr %4, align 8
  store i32 1, ptr %12, align 4
  br label %52

52:                                               ; preds = %45, %17
  call void @llvm.lifetime.end.p0(i64 8, ptr %11) #4
  call void @llvm.lifetime.end.p0(i64 8, ptr %10) #4
  call void @llvm.lifetime.end.p0(i64 8, ptr %9) #4
  call void @llvm.lifetime.end.p0(i64 8, ptr %8) #4
  %53 = load ptr, ptr %4, align 8
  ret ptr %53
}