; Function Attrs: nounwind uwtable
define internal fastcc ptr @_append_list_to_array(ptr noundef %0, ptr noundef %1, ptr noundef nonnull captures(none) %2) unnamed_addr #0 {
  %4 = alloca ptr, align 8
  store ptr %1, ptr %4, align 8
  %.not = icmp eq ptr %0, null
  br i1 %.not, label %5, label %7

5:                                                ; preds = %3
  %6 = tail call i32 (ptr, ...) @error(ptr noundef nonnull @.str.1, ptr noundef nonnull @__func__._append_list_to_array) #6
  br label %26

7:                                                ; preds = %3
  %8 = load i64, ptr %2, align 8
  %9 = tail call i32 @list_count(ptr noundef nonnull %0) #6
  %10 = sext i32 %9 to i64
  %11 = load i64, ptr %2, align 8
  %12 = add i64 %11, %10
  store i64 %12, ptr %2, align 8
  %13 = shl i64 %12, 3
  %14 = add i64 %13, 8
  %15 = call ptr @slurm_xrecalloc(ptr noundef nonnull %4, i64 noundef 1, i64 noundef %14, i1 noundef zeroext true, i1 noundef zeroext false, ptr noundef nonnull @.str.2, i32 noundef 234, ptr noundef nonnull @__func__._append_list_to_array) #6
  store ptr %15, ptr %4, align 8
  %16 = call ptr @list_iterator_create(ptr noundef nonnull %0) #6
  %17 = call ptr @list_next(ptr noundef %16) #6
  %.not1516 = icmp eq ptr %17, null
  br i1 %.not1516, label %._crit_edge, label %.lr.ph

.lr.ph:                                           ; preds = %7, %.lr.ph
  %18 = phi ptr [ %22, %.lr.ph ], [ %17, %7 ]
  %.017 = phi i64 [ %20, %.lr.ph ], [ %8, %7 ]
  %19 = load ptr, ptr %4, align 8
  %20 = add i64 %.017, 1
  %21 = getelementptr inbounds nuw ptr, ptr %19, i64 %.017
  store ptr %18, ptr %21, align 8
  %22 = call ptr @list_next(ptr noundef %16) #6
  %.not15 = icmp eq ptr %22, null
  br i1 %.not15, label %._crit_edge, label %.lr.ph, !llvm.loop !8

._crit_edge:                                      ; preds = %.lr.ph, %7
  call void @list_iterator_destroy(ptr noundef %16) #6
  %23 = load ptr, ptr %4, align 8
  %24 = load i64, ptr %2, align 8
  %25 = getelementptr inbounds nuw ptr, ptr %23, i64 %24
  store ptr null, ptr %25, align 8
  %.012.pre = load ptr, ptr %4, align 8
  br label %26

26:                                               ; preds = %._crit_edge, %5
  %.012 = phi ptr [ %.012.pre, %._crit_edge ], [ %1, %5 ]
  ret ptr %.012
}